target datalayout = "e-m:e-p270:32:32-p271:32:32-p272:64:64-i64:64-i128:128-f80:128-n8:16:32:64-S128"
target triple = "x86_64-pc-linux-gnu"

%struct._typeobject = type { %struct.PyVarObject, ptr, i64, i64, ptr, i64, ptr, ptr, ptr, ptr, ptr, ptr, ptr, ptr, ptr, ptr, ptr, ptr, ptr, i64, ptr, ptr, ptr, ptr, i64, ptr, ptr, ptr, ptr, ptr, ptr, ptr, ptr, ptr, i64, ptr, ptr, ptr, ptr, ptr, ptr, ptr, ptr, ptr, ptr, ptr, i32, ptr, ptr, i8, i16 }
%struct.PyVarObject = type { %struct._object, i64 }
%struct._object = type { %union.anon, ptr }
%union.anon = type { i64 }
%struct.PyTupleObject = type { %struct.PyVarObject, [1 x ptr] }

@.str.1 = private unnamed_addr constant [9 x i8] c"reversed\00", align 1

; Function Attrs: inlinehint nounwind uwtable
define internal i64 @Py_SIZE(ptr noundef %0) #3 {
  %2 = alloca ptr, align 8
  store ptr %0, ptr %2, align 8, !tbaa !4
  %3 = load ptr, ptr %2, align 8, !tbaa !4
  %4 = getelementptr inbounds nuw %struct.PyVarObject, ptr %3, i32 0, i32 1
  %5 = load i64, ptr %4, align 8, !tbaa !128
  ret i64 %5
}

; Function Attrs: inlinehint nounwind uwtable
define internal i64 @PyTuple_GET_SIZE(ptr noundef %0) #3 {
  %2 = alloca ptr, align 8
  %3 = alloca ptr, align 8
  store ptr %0, ptr %2, align 8, !tbaa !4
  call void @llvm.lifetime.start.p0(i64 8, ptr %3) #7
  %4 = load ptr, ptr %2, align 8, !tbaa !4
  store ptr %4, ptr %3, align 8, !tbaa !9
  %5 = load ptr, ptr %3, align 8, !tbaa !9
  %6 = call i64 @Py_SIZE(ptr noundef %5)
  call void @llvm.lifetime.end.p0(i64 8, ptr %3) #7
  ret i64 %6
}

; Function Attrs: nounwind uwtable
define internal ptr @reversed_new(ptr noundef %0, ptr noundef %1, ptr noundef %2) #0 {
  %4 = alloca ptr, align 8
  %5 = alloca ptr, align 8
  %6 = alloca ptr, align 8
  %7 = alloca ptr, align 8
  %8 = alloca ptr, align 8
  %9 = alloca ptr, align 8
  store ptr %0, ptr %4, align 8, !tbaa !29
  store ptr %1, ptr %5, align 8, !tbaa !4
  store ptr %2, ptr %6, align 8, !tbaa !4
  call void @llvm.lifetime.start.p0(i64 8, ptr %7) #7
  store ptr null, ptr %7, align 8, !tbaa !4
  call void @llvm.lifetime.start.p0(i64 8, ptr %8) #7
  store ptr @PyReversed_Type, ptr %8, align 8, !tbaa !29
  call void @llvm.lifetime.start.p0(i64 8, ptr %9) #7
  %10 = load ptr, ptr %4, align 8, !tbaa !29
  %11 = load ptr, ptr %8, align 8, !tbaa !29
  %12 = icmp eq ptr %10, %11
  br i1 %12, label %21, label %13

13:                                               ; preds = %3
  %14 = load ptr, ptr %4, align 8, !tbaa !29
  %15 = getelementptr inbounds nuw %struct._typeobject, ptr %14, i32 0, i32 35
  %16 = load ptr, ptr %15, align 8, !tbaa !36
  %17 = load ptr, ptr %8, align 8, !tbaa !29
  %18 = getelementptr inbounds nuw %struct._typeobject, ptr %17, i32 0, i32 35
  %19 = load ptr, ptr %18, align 8, !tbaa !36
  %20 = icmp eq ptr %16, %19
  br i1 %20, label %21, label %29

21:                                               ; preds = %13, %3
  %22 = load ptr, ptr %6, align 8, !tbaa !4
  %23 = icmp eq ptr %22, null
  br i1 %23, label %29, label %24

24:                                               ; preds = %21
  %25 = load ptr, ptr %6, align 8, !tbaa !4
  %26 = call i32 @_PyArg_NoKeywords(ptr noundef @.str.1, ptr noundef %25)
  %27 = icmp ne i32 %26, 0
  br i1 %27, label %29, label %28

28:                                               ; preds = %24
  br label %51

29:                                               ; preds = %24, %21, %13
  %30 = load ptr, ptr %5, align 8, !tbaa !4
  %31 = call i64 @PyTuple_GET_SIZE(ptr noundef %30)
  %32 = icmp sle i64 1, %31
  br i1 %32, label %33, label %37

33:                                               ; preds = %29
  %34 = load ptr, ptr %5, align 8, !tbaa !4
  %35 = call i64 @PyTuple_GET_SIZE(ptr noundef %34)
  %36 = icmp sle i64 %35, 1
  br i1 %36, label %43, label %37

37:                                               ; preds = %33, %29
  %38 = load ptr, ptr %5, align 8, !tbaa !4
  %39 = call i64 @PyTuple_GET_SIZE(ptr noundef %38)
  %40 = call i32 @_PyArg_CheckPositional(ptr noundef @.str.1, i64 noundef %39, i64 noundef 1, i64 noundef 1)
  %41 = icmp ne i32 %40, 0
  br i1 %41, label %43, label %42

42:                                               ; preds = %37
  br label %51

43:                                               ; preds = %37, %33
  %44 = load ptr, ptr %5, align 8, !tbaa !4
  %45 = getelementptr inbounds nuw %struct.PyTupleObject, ptr %44, i32 0, i32 1
  %46 = getelementptr [1 x ptr], ptr %45, i64 0, i64 0
  %47 = load ptr, ptr %46, align 8, !tbaa !4
  store ptr %47, ptr %9, align 8, !tbaa !4
  %48 = load ptr, ptr %4, align 8, !tbaa !29
  %49 = load ptr, ptr %9, align 8, !tbaa !4
  %50 = call ptr @reversed_new_impl(ptr noundef %48, ptr noundef %49)
  store ptr %50, ptr %7, align 8, !tbaa !4
  br label %51

51:                                               ; preds = %43, %42, %28
  %52 = load ptr, ptr %7, align 8, !tbaa !4
  call void @llvm.lifetime.end.p0(i64 8, ptr %9) #7
  call void @llvm.lifetime.end.p0(i64 8, ptr %8) #7
  call void @llvm.lifetime.end.p0(i64 8, ptr %7) #7
  ret ptr %52
}