; Function Attrs: nounwind uwtable
define internal ptr @reversed_new(ptr noundef %0, ptr noundef readonly captures(none) %1, ptr noundef %2) #0 {
  %4 = icmp eq ptr %0, @PyReversed_Type
  br i1 %4, label %11, label %5

5:                                                ; preds = %3
  %6 = getelementptr inbounds nuw i8, ptr %0, i64 296
  %7 = load ptr, ptr %6, align 8, !tbaa !120
  %8 = load ptr, ptr getelementptr inbounds nuw (i8, ptr @PyReversed_Type, i64 296), align 8, !tbaa !120
  %9 = icmp ne ptr %7, %8
  %10 = icmp eq ptr %2, null
  %or.cond = or i1 %10, %9
  br i1 %or.cond, label %14, label %12

11:                                               ; preds = %3
  %.old1 = icmp eq ptr %2, null
  br i1 %.old1, label %14, label %12

12:                                               ; preds = %5, %11
  %13 = tail call i32 @_PyArg_NoKeywords(ptr noundef nonnull @.str.1, ptr noundef nonnull %2) #4
  %.not = icmp eq i32 %13, 0
  br i1 %.not, label %22, label %14

14:                                               ; preds = %12, %11, %5
  %15 = getelementptr i8, ptr %1, i64 16
  %.val = load i64, ptr %15, align 8, !tbaa !112
  %or.cond18 = icmp eq i64 %.val, 1
  br i1 %or.cond18, label %18, label %16

16:                                               ; preds = %14
  %17 = tail call i32 @_PyArg_CheckPositional(ptr noundef nonnull @.str.1, i64 noundef %.val, i64 noundef 1, i64 noundef 1) #4
  %.not15 = icmp eq i32 %17, 0
  br i1 %.not15, label %22, label %18

18:                                               ; preds = %14, %16
  %19 = getelementptr inbounds nuw i8, ptr %1, i64 24
  %20 = load ptr, ptr %19, align 8, !tbaa !29
  %21 = tail call fastcc ptr @reversed_new_impl(ptr noundef %0, ptr noundef %20)
  br label %22

22:                                               ; preds = %16, %12, %18
  %.0 = phi ptr [ %21, %18 ], [ null, %16 ], [ null, %12 ]
  ret ptr %.0
}